target datalayout = "e-m:e-p270:32:32-p271:32:32-p272:64:64-i64:64-i128:128-f80:128-n8:16:32:64-S128"
target triple = "x86_64-pc-linux-gnu"

%struct.expert_field = type { i32, i32 }

@hf_ldp_tlv_ipv4_intID_hop_addr = internal global i32 0, align 4
@hf_ldp_tlv_logical_intID = internal global i32 0, align 4
@hf_ldp_tlv_inv_length = internal global i32 0, align 4
@ett_ldp_tlv_val = internal global i32 0, align 4
@ett_ldp_sub_tlv = internal global i32 0, align 4
@ei_ldp_inv_length = internal global %struct.expert_field zeroinitializer, align 4
@.str.1113 = private unnamed_addr constant [18 x i8] c"IPv4 Interface ID\00", align 1
@.str.1114 = private unnamed_addr constant [8 x i8] c"Sub TLV\00", align 1

; Function Attrs: null_pointer_is_valid sspstrong uwtable
define internal void @dissect_tlv_ipv4_interface_id(ptr noundef %0, ptr noundef %1, i32 noundef %2, ptr noundef %3, i32 noundef %4) #0 {
  %6 = alloca ptr, align 8
  %7 = alloca ptr, align 8
  %8 = alloca i32, align 4
  %9 = alloca ptr, align 8
  %10 = alloca i32, align 4
  %11 = alloca ptr, align 8
  %12 = alloca ptr, align 8
  %13 = alloca ptr, align 8
  store ptr %0, ptr %6, align 8
  store ptr %1, ptr %7, align 8
  store i32 %2, ptr %8, align 4
  store ptr %3, ptr %9, align 8
  store i32 %4, ptr %10, align 4
  call void @llvm.lifetime.start.p0(i64 8, ptr %11) #7
  call void @llvm.lifetime.start.p0(i64 8, ptr %12) #7
  %14 = load ptr, ptr %9, align 8
  %15 = load ptr, ptr %6, align 8
  %16 = load i32, ptr %8, align 4
  %17 = load i32, ptr %10, align 4
  %18 = load i32, ptr @ett_ldp_tlv_val, align 4
  %19 = call ptr @proto_tree_add_subtree(ptr noundef %14, ptr noundef %15, i32 noundef %16, i32 noundef %17, i32 noundef %18, ptr noundef null, ptr noundef @.str.1113)
  store ptr %19, ptr %11, align 8
  %20 = load ptr, ptr %11, align 8
  %21 = load i32, ptr @hf_ldp_tlv_ipv4_intID_hop_addr, align 4
  %22 = load ptr, ptr %6, align 8
  %23 = load i32, ptr %8, align 4
  %24 = call ptr @proto_tree_add_item(ptr noundef %20, i32 noundef %21, ptr noundef %22, i32 noundef %23, i32 noundef 4, i32 noundef 0)
  %25 = load ptr, ptr %11, align 8
  %26 = load i32, ptr @hf_ldp_tlv_logical_intID, align 4
  %27 = load ptr, ptr %6, align 8
  %28 = load i32, ptr %8, align 4
  %29 = add i32 %28, 4
  %30 = call ptr @proto_tree_add_item(ptr noundef %25, i32 noundef %26, ptr noundef %27, i32 noundef %29, i32 noundef 4, i32 noundef 0)
  %31 = load ptr, ptr %11, align 8
  %32 = load ptr, ptr %6, align 8
  %33 = load i32, ptr %8, align 4
  %34 = add i32 %33, 8
  %35 = load i32, ptr %10, align 4
  %36 = load i32, ptr @ett_ldp_sub_tlv, align 4
  %37 = call ptr @proto_tree_add_subtree(ptr noundef %31, ptr noundef %32, i32 noundef %34, i32 noundef %35, i32 noundef %36, ptr noundef null, ptr noundef @.str.1114)
  store ptr %37, ptr %12, align 8
  %38 = load i32, ptr %10, align 4
  %39 = icmp ne i32 %38, 20
  br i1 %39, label %40, label %59

40:                                               ; preds = %5
  %41 = load i32, ptr %10, align 4
  %42 = icmp ne i32 %41, 24
  br i1 %42, label %43, label %59

43:                                               ; preds = %40
  %44 = load i32, ptr %10, align 4
  %45 = icmp ne i32 %44, 28
  br i1 %45, label %46, label %59

46:                                               ; preds = %43
  %47 = load i32, ptr %10, align 4
  %48 = icmp ne i32 %47, 29
  br i1 %48, label %49, label %59

49:                                               ; preds = %46
  call void @llvm.lifetime.start.p0(i64 8, ptr %13) #7
  %50 = load ptr, ptr %11, align 8
  %51 = load i32, ptr @hf_ldp_tlv_inv_length, align 4
  %52 = load ptr, ptr %6, align 8
  %53 = load i32, ptr %8, align 4
  %54 = load i32, ptr %10, align 4
  %55 = call ptr @proto_tree_add_item(ptr noundef %50, i32 noundef %51, ptr noundef %52, i32 noundef %53, i32 noundef %54, i32 noundef 0)
  store ptr %55, ptr %13, align 8
  %56 = load ptr, ptr %7, align 8
  %57 = load ptr, ptr %13, align 8
  %58 = call ptr @expert_add_info(ptr noundef %56, ptr noundef %57, ptr noundef @ei_ldp_inv_length)
  call void @llvm.lifetime.end.p0(i64 8, ptr %13) #7
  br label %69

59:                                               ; preds = %46, %43, %40, %5
  %60 = load i32, ptr %10, align 4
  %61 = sub i32 %60, 8
  store i32 %61, ptr %10, align 4
  %62 = load ptr, ptr %6, align 8
  %63 = load ptr, ptr %7, align 8
  %64 = load i32, ptr %8, align 4
  %65 = add i32 %64, 8
  %66 = load ptr, ptr %12, align 8
  %67 = load i32, ptr %10, align 4
  %68 = call i32 @dissect_tlv(ptr noundef %62, ptr noundef %63, i32 noundef %65, ptr noundef %66, i32 noundef %67)
  br label %69

69:                                               ; preds = %59, %49
  call void @llvm.lifetime.end.p0(i64 8, ptr %12) #7
  call void @llvm.lifetime.end.p0(i64 8, ptr %11) #7
  ret void
}