; Function Attrs: null_pointer_is_valid sspstrong uwtable
define internal fastcc void @dissect_tlv_ipv4_interface_id(ptr noundef %0, ptr noundef %1, i32 noundef %2, ptr noundef %3, i32 noundef range(i32 0, 2147483644) %4) unnamed_addr #0 {
  %6 = load i32, ptr @ett_ldp_tlv_val, align 4
  %7 = tail call ptr @proto_tree_add_subtree(ptr noundef %3, ptr noundef %0, i32 noundef %2, i32 noundef %4, i32 noundef %6, ptr noundef null, ptr noundef nonnull @.str.1113)
  %8 = load i32, ptr @hf_ldp_tlv_ipv4_intID_hop_addr, align 4
  %9 = tail call ptr @proto_tree_add_item(ptr noundef %7, i32 noundef %8, ptr noundef %0, i32 noundef %2, i32 noundef 4, i32 noundef 0)
  %10 = load i32, ptr @hf_ldp_tlv_logical_intID, align 4
  %11 = add i32 %2, 4
  %12 = tail call ptr @proto_tree_add_item(ptr noundef %7, i32 noundef %10, ptr noundef %0, i32 noundef %11, i32 noundef 4, i32 noundef 0)
  %13 = add i32 %2, 8
  %14 = load i32, ptr @ett_ldp_sub_tlv, align 4
  %15 = tail call ptr @proto_tree_add_subtree(ptr noundef %7, ptr noundef %0, i32 noundef %13, i32 noundef %4, i32 noundef %14, ptr noundef null, ptr noundef nonnull @.str.1114)
  %16 = and i32 %4, 2147483639
  %.not = icmp eq i32 %16, 20
  br i1 %.not, label %21, label %switch.early.test

switch.early.test:                                ; preds = %5
  switch i32 %4, label %17 [
    i32 29, label %21
    i32 24, label %21
  ]

17:                                               ; preds = %switch.early.test
  %18 = load i32, ptr @hf_ldp_tlv_inv_length, align 4
  %19 = tail call ptr @proto_tree_add_item(ptr noundef %7, i32 noundef %18, ptr noundef %0, i32 noundef %2, i32 noundef %4, i32 noundef 0)
  %20 = tail call ptr @expert_add_info(ptr noundef %1, ptr noundef %19, ptr noundef nonnull @ei_ldp_inv_length)
  br label %24

21:                                               ; preds = %switch.early.test, %switch.early.test, %5
  %22 = add nsw i32 %4, -8
  %23 = tail call fastcc i32 @dissect_tlv(ptr noundef %0, ptr noundef %1, i32 noundef %13, ptr noundef %15, i32 noundef %22)
  br label %24

24:                                               ; preds = %21, %17
  ret void
}